; Function Attrs: mustprogress nofree norecurse nosync nounwind willreturn memory(read, argmem: readwrite, inaccessiblemem: none) uwtable
define dso_local void @unit_register_external_symbol(ptr nocapture noundef readonly %0, ptr nocapture noundef %1) local_unnamed_addr #3 {
  %3 = getelementptr inbounds i8, ptr %1, i64 56
  %4 = load ptr, ptr %3, align 8
  %.not = icmp eq ptr %4, null
  %. = select i1 %.not, ptr getelementptr inbounds (%struct.GlobalContext, ptr @global_context, i64 0, i32 1), ptr %4
  %5 = load ptr, ptr %., align 8
  %6 = load ptr, ptr %0, align 8
  %7 = icmp eq ptr %5, %6
  br i1 %7, label %15, label %8

8:                                                ; preds = %2
  %9 = getelementptr inbounds i8, ptr %1, i64 8
  %10 = load ptr, ptr %9, align 8
  %.not6 = icmp eq ptr %10, null
  br i1 %.not6, label %15, label %11

11:                                               ; preds = %8
  %12 = getelementptr inbounds i8, ptr %1, i64 24
  %13 = load i64, ptr %12, align 8
  %14 = or i64 %13, 1048576
  store i64 %14, ptr %12, align 8
  br label %15

15:                                               ; preds = %2, %8, %11
  ret void
}